target datalayout = "e-m:e-p270:32:32-p271:32:32-p272:64:64-i64:64-i128:128-f80:128-n8:16:32:64-S128"
target triple = "x86_64-pc-linux-gnu"

%"class.base::BasicStringPiece.0" = type { ptr, i64 }

; Function Attrs: mustprogress uwtable
define available_externally { ptr, i64 } @_ZNK4base16BasicStringPieceINSt7__cxx1112basic_stringItNS_20string16_char_traitsESaItEEEE6substrEmm(ptr noundef nonnull align 8 dereferenceable(16) %0, i64 noundef %1, i64 noundef %2) #3 align 2 {
  %4 = alloca %"class.base::BasicStringPiece.0", align 8
  %5 = alloca ptr, align 8
  %6 = alloca i64, align 8
  %7 = alloca i64, align 8
  store ptr %0, ptr %5, align 8, !tbaa !38
  store i64 %1, ptr %6, align 8, !tbaa !20
  store i64 %2, ptr %7, align 8, !tbaa !20
  %8 = load ptr, ptr %5, align 8
  %9 = load i64, ptr %6, align 8, !tbaa !20
  %10 = load i64, ptr %7, align 8, !tbaa !20
  %11 = call { ptr, i64 } @_ZN4base8internal6substrERKNS_16BasicStringPieceINSt7__cxx1112basic_stringItNS_20string16_char_traitsESaItEEEEEmm(ptr noundef nonnull align 8 dereferenceable(16) %8, i64 noundef %9, i64 noundef %10)
  %12 = getelementptr inbounds nuw { ptr, i64 }, ptr %4, i32 0, i32 0
  %13 = extractvalue { ptr, i64 } %11, 0
  store ptr %13, ptr %12, align 8
  %14 = getelementptr inbounds nuw { ptr, i64 }, ptr %4, i32 0, i32 1
  %15 = extractvalue { ptr, i64 } %11, 1
  store i64 %15, ptr %14, align 8
  %16 = load { ptr, i64 }, ptr %4, align 8
  ret { ptr, i64 } %16
}

; Function Attrs: mustprogress nounwind uwtable
define available_externally noundef i64 @_ZNK4base16BasicStringPieceINSt7__cxx1112basic_stringItNS_20string16_char_traitsESaItEEEE4sizeEv(ptr noundef nonnull align 8 dereferenceable(16) %0) #0 align 2 {
  %2 = alloca ptr, align 8
  store ptr %0, ptr %2, align 8, !tbaa !38
  %3 = load ptr, ptr %2, align 8
  %4 = getelementptr inbounds nuw %"class.base::BasicStringPiece.0", ptr %3, i32 0, i32 1
  %5 = load i64, ptr %4, align 8, !tbaa !40
  ret i64 %5
}

; Function Attrs: mustprogress uwtable
define available_externally noundef i64 @_ZNK4base16BasicStringPieceINSt7__cxx1112basic_stringItNS_20string16_char_traitsESaItEEEE16find_last_not_ofERKS6_m(ptr noundef nonnull align 8 dereferenceable(16) %0, ptr noundef nonnull align 8 dereferenceable(16) %1, i64 noundef %2) #3 align 2 {
  %4 = alloca ptr, align 8
  %5 = alloca ptr, align 8
  %6 = alloca i64, align 8
  store ptr %0, ptr %4, align 8, !tbaa !38
  store ptr %1, ptr %5, align 8, !tbaa !38
  store i64 %2, ptr %6, align 8, !tbaa !20
  %7 = load ptr, ptr %4, align 8
  %8 = load ptr, ptr %5, align 8, !tbaa !38
  %9 = load i64, ptr %6, align 8, !tbaa !20
  %10 = call noundef i64 @_ZN4base8internal16find_last_not_ofERKNS_16BasicStringPieceINSt7__cxx1112basic_stringItNS_20string16_char_traitsESaItEEEEES9_m(ptr noundef nonnull align 8 dereferenceable(16) %7, ptr noundef nonnull align 8 dereferenceable(16) %8, i64 noundef %9)
  ret i64 %10
}

; Function Attrs: mustprogress uwtable
define available_externally noundef i64 @_ZNK4base16BasicStringPieceINSt7__cxx1112basic_stringItNS_20string16_char_traitsESaItEEEE17find_first_not_ofERKS6_m(ptr noundef nonnull align 8 dereferenceable(16) %0, ptr noundef nonnull align 8 dereferenceable(16) %1, i64 noundef %2) #3 align 2 {
  %4 = alloca ptr, align 8
  %5 = alloca ptr, align 8
  %6 = alloca i64, align 8
  store ptr %0, ptr %4, align 8, !tbaa !38
  store ptr %1, ptr %5, align 8, !tbaa !38
  store i64 %2, ptr %6, align 8, !tbaa !20
  %7 = load ptr, ptr %4, align 8
  %8 = load ptr, ptr %5, align 8, !tbaa !38
  %9 = load i64, ptr %6, align 8, !tbaa !20
  %10 = call noundef i64 @_ZN4base8internal17find_first_not_ofERKNS_16BasicStringPieceINSt7__cxx1112basic_stringItNS_20string16_char_traitsESaItEEEEES9_m(ptr noundef nonnull align 8 dereferenceable(16) %7, ptr noundef nonnull align 8 dereferenceable(16) %8, i64 noundef %9)
  ret i64 %10
}

; Function Attrs: mustprogress uwtable
define linkonce_odr { ptr, i64 } @_ZN4base16TrimStringPieceTINSt7__cxx1112basic_stringItNS_20string16_char_traitsESaItEEEEENS_16BasicStringPieceIT_EES8_S8_NS_13TrimPositionsE(ptr %0, i64 %1, ptr %2, i64 %3, i32 noundef %4) #3 comdat {
  %6 = alloca %"class.base::BasicStringPiece.0", align 8
  %7 = alloca %"class.base::BasicStringPiece.0", align 8
  %8 = alloca %"class.base::BasicStringPiece.0", align 8
  %9 = alloca i32, align 4
  %10 = alloca i64, align 8
  %11 = alloca i64, align 8
  %12 = getelementptr inbounds nuw { ptr, i64 }, ptr %7, i32 0, i32 0
  store ptr %0, ptr %12, align 8
  %13 = getelementptr inbounds nuw { ptr, i64 }, ptr %7, i32 0, i32 1
  store i64 %1, ptr %13, align 8
  %14 = getelementptr inbounds nuw { ptr, i64 }, ptr %8, i32 0, i32 0
  store ptr %2, ptr %14, align 8
  %15 = getelementptr inbounds nuw { ptr, i64 }, ptr %8, i32 0, i32 1
  store i64 %3, ptr %15, align 8
  store i32 %4, ptr %9, align 4, !tbaa !50
  call void @llvm.lifetime.start.p0(i64 8, ptr %10) #17
  %16 = load i32, ptr %9, align 4, !tbaa !50
  %17 = and i32 %16, 1
  %18 = icmp ne i32 %17, 0
  br i1 %18, label %19, label %21

19:                                               ; preds = %5
  %20 = call noundef i64 @_ZNK4base16BasicStringPieceINSt7__cxx1112basic_stringItNS_20string16_char_traitsESaItEEEE17find_first_not_ofERKS6_m(ptr noundef nonnull align 8 dereferenceable(16) %7, ptr noundef nonnull align 8 dereferenceable(16) %8, i64 noundef 0)
  br label %22

21:                                               ; preds = %5
  br label %22

22:                                               ; preds = %21, %19
  %23 = phi i64 [ %20, %19 ], [ 0, %21 ]
  store i64 %23, ptr %10, align 8, !tbaa !20
  call void @llvm.lifetime.start.p0(i64 8, ptr %11) #17
  %24 = load i32, ptr %9, align 4, !tbaa !50
  %25 = and i32 %24, 2
  %26 = icmp ne i32 %25, 0
  br i1 %26, label %27, label %30

27:                                               ; preds = %22
  %28 = call noundef i64 @_ZNK4base16BasicStringPieceINSt7__cxx1112basic_stringItNS_20string16_char_traitsESaItEEEE16find_last_not_ofERKS6_m(ptr noundef nonnull align 8 dereferenceable(16) %7, ptr noundef nonnull align 8 dereferenceable(16) %8, i64 noundef -1)
  %29 = add i64 %28, 1
  br label %32

30:                                               ; preds = %22
  %31 = call noundef i64 @_ZNK4base16BasicStringPieceINSt7__cxx1112basic_stringItNS_20string16_char_traitsESaItEEEE4sizeEv(ptr noundef nonnull align 8 dereferenceable(16) %7)
  br label %32

32:                                               ; preds = %30, %27
  %33 = phi i64 [ %29, %27 ], [ %31, %30 ]
  store i64 %33, ptr %11, align 8, !tbaa !20
  %34 = load i64, ptr %10, align 8, !tbaa !20
  %35 = load i64, ptr %11, align 8, !tbaa !20
  %36 = load i64, ptr %10, align 8, !tbaa !20
  %37 = sub i64 %35, %36
  %38 = call { ptr, i64 } @_ZNK4base16BasicStringPieceINSt7__cxx1112basic_stringItNS_20string16_char_traitsESaItEEEE6substrEmm(ptr noundef nonnull align 8 dereferenceable(16) %7, i64 noundef %34, i64 noundef %37)
  %39 = getelementptr inbounds nuw { ptr, i64 }, ptr %6, i32 0, i32 0
  %40 = extractvalue { ptr, i64 } %38, 0
  store ptr %40, ptr %39, align 8
  %41 = getelementptr inbounds nuw { ptr, i64 }, ptr %6, i32 0, i32 1
  %42 = extractvalue { ptr, i64 } %38, 1
  store i64 %42, ptr %41, align 8
  call void @llvm.lifetime.end.p0(i64 8, ptr %11) #17
  call void @llvm.lifetime.end.p0(i64 8, ptr %10) #17
  %43 = load { ptr, i64 }, ptr %6, align 8
  ret { ptr, i64 } %43
}

; Function Attrs: mustprogress uwtable
define { ptr, i64 } @_ZN4base10TrimStringENS_16BasicStringPieceINSt7__cxx1112basic_stringItNS_20string16_char_traitsESaItEEEEERKS6_NS_13TrimPositionsE(ptr %0, i64 %1, ptr noundef nonnull align 8 dereferenceable(16) %2, i32 noundef %3) #3 {
  %5 = alloca %"class.base::BasicStringPiece.0", align 8
  %6 = alloca %"class.base::BasicStringPiece.0", align 8
  %7 = alloca ptr, align 8
  %8 = alloca i32, align 4
  %9 = alloca %"class.base::BasicStringPiece.0", align 8
  %10 = alloca %"class.base::BasicStringPiece.0", align 8
  %11 = getelementptr inbounds nuw { ptr, i64 }, ptr %6, i32 0, i32 0
  store ptr %0, ptr %11, align 8
  %12 = getelementptr inbounds nuw { ptr, i64 }, ptr %6, i32 0, i32 1
  store i64 %1, ptr %12, align 8
  store ptr %2, ptr %7, align 8, !tbaa !38
  store i32 %3, ptr %8, align 4, !tbaa !50
  call void @llvm.memcpy.p0.p0.i64(ptr align 8 %9, ptr align 8 %6, i64 16, i1 false), !tbaa.struct !23
  %13 = load ptr, ptr %7, align 8, !tbaa !38
  call void @llvm.memcpy.p0.p0.i64(ptr align 8 %10, ptr align 8 %13, i64 16, i1 false), !tbaa.struct !23
  %14 = load i32, ptr %8, align 4, !tbaa !50
  %15 = getelementptr inbounds nuw { ptr, i64 }, ptr %9, i32 0, i32 0
  %16 = load ptr, ptr %15, align 8
  %17 = getelementptr inbounds nuw { ptr, i64 }, ptr %9, i32 0, i32 1
  %18 = load i64, ptr %17, align 8
  %19 = getelementptr inbounds nuw { ptr, i64 }, ptr %10, i32 0, i32 0
  %20 = load ptr, ptr %19, align 8
  %21 = getelementptr inbounds nuw { ptr, i64 }, ptr %10, i32 0, i32 1
  %22 = load i64, ptr %21, align 8
  %23 = call { ptr, i64 } @_ZN4base16TrimStringPieceTINSt7__cxx1112basic_stringItNS_20string16_char_traitsESaItEEEEENS_16BasicStringPieceIT_EES8_S8_NS_13TrimPositionsE(ptr %16, i64 %18, ptr %20, i64 %22, i32 noundef %14)
  %24 = getelementptr inbounds nuw { ptr, i64 }, ptr %5, i32 0, i32 0
  %25 = extractvalue { ptr, i64 } %23, 0
  store ptr %25, ptr %24, align 8
  %26 = getelementptr inbounds nuw { ptr, i64 }, ptr %5, i32 0, i32 1
  %27 = extractvalue { ptr, i64 } %23, 1
  store i64 %27, ptr %26, align 8
  %28 = load { ptr, i64 }, ptr %5, align 8
  ret { ptr, i64 } %28
}